#include <math.h>
#include <stdio.h>
#include <stdlib.h>
#include <string.h>
#include <iostream>
using namespace std;

/*??
??n????n???????????????10-100???
???????????????????????????????????????????
????
???????
??????????n?1<=n<=20000??????????????????
???????????n????????????10???100?
????
???????????????????????????????????????
????
5

10 12 93 12 75
????
10 12 93 75*/
int main()
{
	int i,j,k,x=0,n,a[20000];
	cin>>n;
	for(i=0;i<n;i++)
	{
		cin>>a[i];
	}
	for(i=0;i<n;i++)
	{
		k=0;
		for(j=0;j<i;j++)
		{
			if(a[i]==a[j])
			{
				k++;
			}
		}
		if(k==0)
		{
			x++;
			if(x==1)
			{
				cout<<a[i];
			}
			else
			{
				cout<<" "<<a[i];
			}
		}
	}
	return 0;
}
